target datalayout = "e-m:e-p270:32:32-p271:32:32-p272:64:64-i64:64-i128:128-f80:128-n8:16:32:64-S128"
target triple = "x86_64-unknown-linux-gnu"

%"class.sat::literal" = type { i32 }
%"class.sat::elim_eqs" = type { %class.svector, ptr, ptr }
%class.svector = type { %class.vector }
%class.vector = type { ptr }
%"class.sat::solver" = type { %"class.sat::solver_core", i8, [7 x i8], %"struct.sat::config", %"struct.sat::stats", %class.scoped_ptr, %class.scoped_ptr.0, ptr, %"class.sat::drat", [2 x %"class.sat::clause_allocator"], i8, %class.random_gen, %"class.sat::cleaner", %class.svector.13, %"class.sat::model_converter", i8, %"class.sat::simplifier", %"class.sat::scc", %"class.sat::asymm_branch", %"class.sat::probing", i8, [7 x i8], %"class.sat::mus", %"class.sat::binspr", i8, i8, [6 x i8], %"class.sat::justification", %"class.sat::literal", %class.ptr_vector.22, %class.ptr_vector.22, i32, %class.svector.6, %class.svector.6, %class.svector.6, %class.svector.6, %class.vector.42, %class.svector.13, %class.svector.43, %class.svector.16, %class.svector.16, %class.svector.16, %class.svector.16, %class.svector.16, %class.svector.6, %class.svector.6, i32, %class.svector.28, %class.svector.6, i32, %class.svector.45, %class.svector.45, %class.svector.45, %class.svector.45, %class.svector.45, i32, double, %class.svector.16, %class.svector.16, %class.svector.16, %class.svector.26, i32, i32, i32, i32, i32, i32, %"struct.sat::backoff", i32, i32, %"struct.sat::backoff", %"struct.sat::backoff", %class.var_queue, i32, i32, i32, %class.ema, %class.ema, %class.ema, %class.ema, %class.ema, %class.svector.28, %class.svector.30, %"class.std::__cxx11::basic_string", i8, %class.visit_helper, %class.svector.47, %class.scoped_limit_trail, %class.stopwatch, %class.params_ref, %"struct.sat::no_drat_params", %class.scoped_ptr.40, %class.svector.28, %"class.sat::literal_set", %"class.sat::literal_set", %class.svector.28, i32, i32, i32, i32, i8, ptr, ptr, %class.statistics, i32, i32, i32, i32, i8, i32, i32, i32, i32, i32, i32, i32, double, i32, double, i8, i8, %class.svector.28, i8, %class.svector.45, i32, i32, i32, %class.svector.28, %class.svector.28, %class.svector.26, %class.svector.6, %class.approx_set_tpl, %class.svector.28, %class.svector.28, %class.vector.12, %class.svector.28, %class.svector.38, %class.u_map, %class.svector.28 }
%"class.sat::solver_core" = type { ptr, ptr }
%"struct.sat::config" = type <{ i64, i32, i32, i32, i8, [3 x i8], i32, i32, double, i32, i8, [3 x i8], i32, i8, [3 x i8], i32, [4 x i8], double, double, i32, i32, double, double, i32, [4 x i8], %class.symbol, double, i32, i32, i8, [3 x i8], i32, i32, i8, [3 x i8], i32, i8, [3 x i8], i32, i8, [3 x i8], i32, i8, i8, i8, i8, i32, i8, i8, i8, i8, i8, i8, i8, i8, i32, i8, i8, i8, i8, i32, double, i32, [4 x i8], double, double, double, double, i32, i8, i8, [2 x i8], double, i8, i8, [2 x i8], i32, double, i32, i32, i32, i32, i32, i32, i32, i32, i8, i8, i8, i8, i32, i32, i8, i8, i8, i8, i8, i8, i8, [5 x i8], %class.symbol, i8, i8, i8, i8, i8, i8, [2 x i8], i32, i32, i32, i8, [3 x i8], double, double, double, double, double, i8, [7 x i8] }>
%class.symbol = type { ptr }
%"struct.sat::stats" = type { i32, i32, i32, i32, i32, i32, i32, i32, i32, i32, i32, i32, i32, i32, i32, i32, i32, i32, i32, i32, i32 }
%class.scoped_ptr = type { ptr }
%class.scoped_ptr.0 = type { ptr }
%"class.sat::drat" = type { ptr, %class.svector.1, ptr, %"class.sat::clause_allocator", ptr, ptr, %class.svector.8, %class.svector.10, %class.vector.12, %class.svector.13, i8, i8, i8, i8, i8, %"struct.sat::drat::stats" }
%class.svector.1 = type { %class.vector.2 }
%class.vector.2 = type { ptr }
%"class.sat::clause_allocator" = type { %class.sat_allocator, %class.id_gen }
%class.sat_allocator = type { ptr, i64, %class.ptr_vector, ptr, [65 x %class.ptr_vector.4] }
%class.ptr_vector = type { %class.vector.3 }
%class.vector.3 = type { ptr }
%class.ptr_vector.4 = type { %class.vector.5 }
%class.vector.5 = type { ptr }
%class.id_gen = type { i32, %class.svector.6 }
%class.svector.8 = type { %class.vector.9 }
%class.vector.9 = type { ptr }
%class.svector.10 = type { %class.vector.11 }
%class.vector.11 = type { ptr }
%"struct.sat::drat::stats" = type { i32, i32, i32, i32 }
%class.random_gen = type { i32 }
%"class.sat::cleaner" = type { ptr, i32, i32, i32, i32 }
%"class.sat::model_converter" = type { %class.vector.15, i32, %class.svector.16, ptr, %class.svector.18 }
%class.vector.15 = type { ptr }
%class.svector.18 = type { %class.vector.19 }
%class.vector.19 = type { ptr }
%"class.sat::simplifier" = type { ptr, i32, %"class.sat::use_list", %"class.sat::ext_use_list", %"class.sat::clause_set", %class.svector.24, i32, %class.tracked_uint_set, i8, %"class.sat::tmp_clause", %class.svector.26, i32, i32, i8, i8, i8, i8, i32, i8, i8, i32, i8, i32, i8, i8, i32, i32, i32, i32, i32, i32, i32, i32, i32, i32, i8, i32, i8, i8, i32, i32, i32, i32, i32, i32, i32, i32, i32, i32, i32, i8, i32, %class.ptr_vector.22, %class.svector.28, %class.svector.30, %class.svector.30, %class.svector.28 }
%"class.sat::use_list" = type { %class.vector.20 }
%class.vector.20 = type { ptr }
%"class.sat::ext_use_list" = type { %class.vector.21 }
%class.vector.21 = type { ptr }
%"class.sat::clause_set" = type { %class.svector.6, %class.ptr_vector.22 }
%class.svector.24 = type { %class.vector.25 }
%class.vector.25 = type { ptr }
%class.tracked_uint_set = type { %class.svector.26, %class.svector.6 }
%"class.sat::tmp_clause" = type { ptr }
%"class.sat::scc" = type { ptr, i8, i8, i32, i32, %"class.sat::big" }
%"class.sat::big" = type { ptr, i32, %class.vector.32, %class.svector.16, %class.svector.33, %class.svector.33, %class.svector.28, %class.svector.28, i8, i8, %class.vector.32 }
%class.svector.33 = type { %class.vector.34 }
%class.vector.34 = type { ptr }
%class.vector.32 = type { ptr }
%"class.sat::asymm_branch" = type { ptr, %class.params_ref, i64, %class.random_gen, i32, i32, i8, i32, i32, i8, i8, i64, i32, i32, i32, %class.svector.28, %class.svector.28, %class.svector.35, %class.svector.35, %class.svector.28, %class.svector.28 }
%class.svector.35 = type { %class.vector.36 }
%class.vector.36 = type { ptr }
%"class.sat::probing" = type { ptr, i32, %"class.sat::literal_set", %class.svector.28, i32, i8, i32, i8, i8, i64, i32, %class.vector.37, %class.svector.38, %"class.sat::big" }
%class.vector.37 = type { ptr }
%"class.sat::mus" = type <{ ptr, %class.svector.28, %class.svector.28, i8, [7 x i8], %class.svector.13, i32, [4 x i8] }>
%"class.sat::binspr" = type <{ ptr, %class.scoped_ptr.40, i32, i32, %class.vector.41, i32, i32, %class.svector.16, %class.svector.16, %class.svector.28, %class.svector.28, i32, i32, i32, i32, i32, [4 x i32], [5 x i32], [5 x i32], [4 x i8] }>
%class.vector.41 = type { ptr }
%"class.sat::justification" = type <{ i32, [4 x i8], i64, i32, [4 x i8] }>
%class.ptr_vector.22 = type { %class.vector.23 }
%class.vector.23 = type { ptr }
%class.vector.42 = type { ptr }
%class.svector.13 = type { %class.vector.14 }
%class.vector.14 = type { ptr }
%class.svector.43 = type { %class.vector.44 }
%class.vector.44 = type { ptr }
%class.svector.16 = type { %class.vector.17 }
%class.vector.17 = type { ptr }
%"struct.sat::backoff" = type { i32, i32, i32, i32, i32 }
%class.var_queue = type { %class.heap }
%class.heap = type { %"struct.var_queue<svector<unsigned int>>::lt", %class.svector.33, %class.svector.33 }
%"struct.var_queue<svector<unsigned int>>::lt" = type { ptr }
%class.ema = type { double, double, double, i32, i32 }
%class.svector.30 = type { %class.vector.31 }
%class.vector.31 = type { ptr }
%"class.std::__cxx11::basic_string" = type { %"struct.std::__cxx11::basic_string<char>::_Alloc_hider", i64, %union.anon }
%"struct.std::__cxx11::basic_string<char>::_Alloc_hider" = type { ptr }
%union.anon = type { i64, [8 x i8] }
%class.visit_helper = type { %class.svector.6, i32, i32 }
%class.svector.47 = type { %class.vector.48 }
%class.vector.48 = type { ptr }
%class.scoped_limit_trail = type { %class.svector.6, i32, i32 }
%class.stopwatch = type <{ %"class.std::chrono::time_point", %"class.std::chrono::duration", i8, [7 x i8] }>
%"class.std::chrono::time_point" = type { %"class.std::chrono::duration" }
%"class.std::chrono::duration" = type { i64 }
%class.params_ref = type { ptr }
%"struct.sat::no_drat_params" = type { %class.params_ref }
%class.scoped_ptr.40 = type { ptr }
%"class.sat::literal_set" = type { %class.tracked_uint_set }
%class.statistics = type { %class.svector.49, %class.svector.51 }
%class.svector.49 = type { %class.vector.50 }
%class.vector.50 = type { ptr }
%class.svector.51 = type { %class.vector.52 }
%class.vector.52 = type { ptr }
%class.svector.45 = type { %class.vector.46 }
%class.vector.46 = type { ptr }
%class.svector.26 = type { %class.vector.27 }
%class.vector.27 = type { ptr }
%class.svector.6 = type { %class.vector.7 }
%class.vector.7 = type { ptr }
%class.approx_set_tpl = type { i32 }
%class.vector.12 = type { ptr }
%class.svector.38 = type { %class.vector.39 }
%class.vector.39 = type { ptr }
%class.u_map = type { %class.map }
%class.map = type { %class.table2map }
%class.table2map = type { %class.core_hashtable }
%class.core_hashtable = type <{ ptr, i32, i32, i32, [4 x i8] }>
%class.svector.28 = type { %class.vector.29 }
%class.vector.29 = type { ptr }

; Function Attrs: mustprogress nounwind uwtable
define linkonce_odr hidden noundef ptr @_ZNK3sat10tmp_clause3getEv(ptr noundef nonnull align 8 dereferenceable(8) %this) #4 comdat align 2 {
entry:
  %this.addr = alloca ptr, align 8
  store ptr %this, ptr %this.addr, align 8
  %this1 = load ptr, ptr %this.addr, align 8
  %m_clause = getelementptr inbounds %"class.sat::tmp_clause", ptr %this1, i32 0, i32 0
  %0 = load ptr, ptr %m_clause, align 8
  ret ptr %0
}

; Function Attrs: mustprogress uwtable
define hidden void @_ZN3sat8elim_eqs18drat_delete_clauseEv(ptr noundef nonnull align 8 dereferenceable(24) %this) #5 align 2 {
entry:
  %this.addr = alloca ptr, align 8
  store ptr %this, ptr %this.addr, align 8
  %this1 = load ptr, ptr %this.addr, align 8
  %m_solver = getelementptr inbounds %"class.sat::elim_eqs", ptr %this1, i32 0, i32 1
  %0 = load ptr, ptr %m_solver, align 8
  %m_config = getelementptr inbounds %"class.sat::solver", ptr %0, i32 0, i32 3
  %m_drat = getelementptr inbounds %"struct.sat::config", ptr %m_config, i32 0, i32 96
  %1 = load i8, ptr %m_drat, align 8
  %tobool = trunc i8 %1 to i1
  br i1 %tobool, label %if.then, label %if.end

if.then:                                          ; preds = %entry
  %m_solver2 = getelementptr inbounds %"class.sat::elim_eqs", ptr %this1, i32 0, i32 1
  %2 = load ptr, ptr %m_solver2, align 8
  %m_drat3 = getelementptr inbounds %"class.sat::solver", ptr %2, i32 0, i32 8
  %m_to_delete = getelementptr inbounds %"class.sat::elim_eqs", ptr %this1, i32 0, i32 2
  %3 = load ptr, ptr %m_to_delete, align 8
  %call = call noundef ptr @_ZNK3sat10tmp_clause3getEv(ptr noundef nonnull align 8 dereferenceable(8) %3)
  call void @_ZN3sat4drat3delERNS_6clauseE(ptr noundef nonnull align 8 dereferenceable(664) %m_drat3, ptr noundef nonnull align 4 dereferenceable(20) %call)
  br label %if.end

if.end:                                           ; preds = %if.then, %entry
  ret void
}