; Function Attrs: mustprogress uwtable
define hidden void @_ZN3sat8elim_eqs18drat_delete_clauseEv(ptr nocapture noundef nonnull readonly align 8 dereferenceable(24) %this) local_unnamed_addr #6 align 2 {
entry:
  %m_solver = getelementptr inbounds i8, ptr %this, i64 8
  %0 = load ptr, ptr %m_solver, align 8
  %m_drat = getelementptr inbounds i8, ptr %0, i64 352
  %1 = load i8, ptr %m_drat, align 8
  %2 = and i8 %1, 1
  %tobool.not = icmp eq i8 %2, 0
  br i1 %tobool.not, label %if.end, label %if.then

if.then:                                          ; preds = %entry
  %m_drat3 = getelementptr inbounds i8, ptr %0, i64 552
  %m_to_delete = getelementptr inbounds i8, ptr %this, i64 16
  %3 = load ptr, ptr %m_to_delete, align 8
  %4 = load ptr, ptr %3, align 8
  tail call void @_ZN3sat4drat3delERNS_6clauseE(ptr noundef nonnull align 8 dereferenceable(664) %m_drat3, ptr noundef nonnull align 4 dereferenceable(20) %4)
  br label %if.end

if.end:                                           ; preds = %if.then, %entry
  ret void
}